target datalayout = "e-m:e-p270:32:32-p271:32:32-p272:64:64-i64:64-i128:128-f80:128-n8:16:32:64-S128"
target triple = "x86_64-pc-linux-gnu"

%struct.re_guts = type { i32, ptr, i32, i32, ptr, ptr, i32, i64, i64, i64, i32, i32, i32, i32, ptr, ptr, i32, i64, i32, i64, [1 x i8] }
%struct.cset = type { ptr, i8, i8, i64, ptr }

; Function Attrs: nounwind uwtable
define internal i64 @sstep(ptr noundef %0, i64 noundef %1, i64 noundef %2, i64 noundef %3, i32 noundef %4, i64 noundef %5) #0 {
  %7 = alloca ptr, align 8
  %8 = alloca i64, align 8
  %9 = alloca i64, align 8
  %10 = alloca i64, align 8
  %11 = alloca i32, align 4
  %12 = alloca i64, align 8
  %13 = alloca ptr, align 8
  %14 = alloca i64, align 8
  %15 = alloca i64, align 8
  %16 = alloca i64, align 8
  %17 = alloca i64, align 8
  %18 = alloca i32, align 4
  store ptr %0, ptr %7, align 8
  store i64 %1, ptr %8, align 8
  store i64 %2, ptr %9, align 8
  store i64 %3, ptr %10, align 8
  store i32 %4, ptr %11, align 4
  store i64 %5, ptr %12, align 8
  %19 = load i64, ptr %8, align 8
  store i64 %19, ptr %15, align 8
  %20 = load i64, ptr %15, align 8
  %21 = shl i64 1, %20
  store i64 %21, ptr %16, align 8
  br label %22

22:                                               ; preds = %314, %6
  %23 = load i64, ptr %15, align 8
  %24 = load i64, ptr %9, align 8
  %25 = icmp ne i64 %23, %24
  br i1 %25, label %26, label %319

26:                                               ; preds = %22
  %27 = load ptr, ptr %7, align 8
  %28 = getelementptr inbounds nuw %struct.re_guts, ptr %27, i32 0, i32 1
  %29 = load ptr, ptr %28, align 8
  %30 = load i64, ptr %15, align 8
  %31 = getelementptr inbounds i64, ptr %29, i64 %30
  %32 = load i64, ptr %31, align 8
  store i64 %32, ptr %14, align 8
  %33 = load i64, ptr %14, align 8
  %34 = and i64 %33, 4160749568
  switch i64 %34, label %312 [
    i64 134217728, label %35
    i64 268435456, label %36
    i64 402653184, label %51
    i64 536870912, label %65
    i64 2550136832, label %79
    i64 2684354560, label %90
    i64 671088640, label %101
    i64 805306368, label %112
    i64 939524096, label %145
    i64 1073741824, label %145
    i64 1207959552, label %152
    i64 1342177280, label %159
    i64 1476395008, label %201
    i64 1610612736, label %216
    i64 1744830464, label %223
    i64 1879048192, label %223
    i64 2013265920, label %230
    i64 2147483648, label %245
    i64 2281701376, label %277
    i64 2415919104, label %305
  ]

35:                                               ; preds = %26
  br label %313

36:                                               ; preds = %26
  %37 = load i32, ptr %11, align 4
  %38 = load i64, ptr %14, align 8
  %39 = and i64 %38, 134217727
  %40 = trunc i64 %39 to i8
  %41 = sext i8 %40 to i32
  %42 = icmp eq i32 %37, %41
  br i1 %42, label %43, label %50

43:                                               ; preds = %36
  %44 = load i64, ptr %10, align 8
  %45 = load i64, ptr %16, align 8
  %46 = and i64 %44, %45
  %47 = shl i64 %46, 1
  %48 = load i64, ptr %12, align 8
  %49 = or i64 %48, %47
  store i64 %49, ptr %12, align 8
  br label %50

50:                                               ; preds = %43, %36
  br label %313

51:                                               ; preds = %26
  %52 = load i32, ptr %11, align 4
  %53 = icmp eq i32 %52, 129
  br i1 %53, label %57, label %54

54:                                               ; preds = %51
  %55 = load i32, ptr %11, align 4
  %56 = icmp eq i32 %55, 131
  br i1 %56, label %57, label %64

57:                                               ; preds = %54, %51
  %58 = load i64, ptr %10, align 8
  %59 = load i64, ptr %16, align 8
  %60 = and i64 %58, %59
  %61 = shl i64 %60, 1
  %62 = load i64, ptr %12, align 8
  %63 = or i64 %62, %61
  store i64 %63, ptr %12, align 8
  br label %64

64:                                               ; preds = %57, %54
  br label %313

65:                                               ; preds = %26
  %66 = load i32, ptr %11, align 4
  %67 = icmp eq i32 %66, 130
  br i1 %67, label %71, label %68

68:                                               ; preds = %65
  %69 = load i32, ptr %11, align 4
  %70 = icmp eq i32 %69, 131
  br i1 %70, label %71, label %78

71:                                               ; preds = %68, %65
  %72 = load i64, ptr %10, align 8
  %73 = load i64, ptr %16, align 8
  %74 = and i64 %72, %73
  %75 = shl i64 %74, 1
  %76 = load i64, ptr %12, align 8
  %77 = or i64 %76, %75
  store i64 %77, ptr %12, align 8
  br label %78

78:                                               ; preds = %71, %68
  br label %313

79:                                               ; preds = %26
  %80 = load i32, ptr %11, align 4
  %81 = icmp eq i32 %80, 133
  br i1 %81, label %82, label %89

82:                                               ; preds = %79
  %83 = load i64, ptr %10, align 8
  %84 = load i64, ptr %16, align 8
  %85 = and i64 %83, %84
  %86 = shl i64 %85, 1
  %87 = load i64, ptr %12, align 8
  %88 = or i64 %87, %86
  store i64 %88, ptr %12, align 8
  br label %89

89:                                               ; preds = %82, %79
  br label %313

90:                                               ; preds = %26
  %91 = load i32, ptr %11, align 4
  %92 = icmp eq i32 %91, 134
  br i1 %92, label %93, label %100

93:                                               ; preds = %90
  %94 = load i64, ptr %10, align 8
  %95 = load i64, ptr %16, align 8
  %96 = and i64 %94, %95
  %97 = shl i64 %96, 1
  %98 = load i64, ptr %12, align 8
  %99 = or i64 %98, %97
  store i64 %99, ptr %12, align 8
  br label %100

100:                                              ; preds = %93, %90
  br label %313

101:                                              ; preds = %26
  %102 = load i32, ptr %11, align 4
  %103 = icmp sgt i32 %102, 127
  br i1 %103, label %111, label %104

104:                                              ; preds = %101
  %105 = load i64, ptr %10, align 8
  %106 = load i64, ptr %16, align 8
  %107 = and i64 %105, %106
  %108 = shl i64 %107, 1
  %109 = load i64, ptr %12, align 8
  %110 = or i64 %109, %108
  store i64 %110, ptr %12, align 8
  br label %111

111:                                              ; preds = %104, %101
  br label %313

112:                                              ; preds = %26
  %113 = load ptr, ptr %7, align 8
  %114 = getelementptr inbounds nuw %struct.re_guts, ptr %113, i32 0, i32 4
  %115 = load ptr, ptr %114, align 8
  %116 = load i64, ptr %14, align 8
  %117 = and i64 %116, 134217727
  %118 = getelementptr inbounds %struct.cset, ptr %115, i64 %117
  store ptr %118, ptr %13, align 8
  %119 = load i32, ptr %11, align 4
  %120 = icmp sgt i32 %119, 127
  br i1 %120, label %144, label %121

121:                                              ; preds = %112
  %122 = load ptr, ptr %13, align 8
  %123 = getelementptr inbounds nuw %struct.cset, ptr %122, i32 0, i32 0
  %124 = load ptr, ptr %123, align 8
  %125 = load i32, ptr %11, align 4
  %126 = trunc i32 %125 to i8
  %127 = zext i8 %126 to i64
  %128 = getelementptr inbounds i8, ptr %124, i64 %127
  %129 = load i8, ptr %128, align 1
  %130 = zext i8 %129 to i32
  %131 = load ptr, ptr %13, align 8
  %132 = getelementptr inbounds nuw %struct.cset, ptr %131, i32 0, i32 1
  %133 = load i8, ptr %132, align 8
  %134 = zext i8 %133 to i32
  %135 = and i32 %130, %134
  %136 = icmp ne i32 %135, 0
  br i1 %136, label %137, label %144

137:                                              ; preds = %121
  %138 = load i64, ptr %10, align 8
  %139 = load i64, ptr %16, align 8
  %140 = and i64 %138, %139
  %141 = shl i64 %140, 1
  %142 = load i64, ptr %12, align 8
  %143 = or i64 %142, %141
  store i64 %143, ptr %12, align 8
  br label %144

144:                                              ; preds = %137, %121, %112
  br label %313

145:                                              ; preds = %26, %26
  %146 = load i64, ptr %12, align 8
  %147 = load i64, ptr %16, align 8
  %148 = and i64 %146, %147
  %149 = shl i64 %148, 1
  %150 = load i64, ptr %12, align 8
  %151 = or i64 %150, %149
  store i64 %151, ptr %12, align 8
  br label %313

152:                                              ; preds = %26
  %153 = load i64, ptr %12, align 8
  %154 = load i64, ptr %16, align 8
  %155 = and i64 %153, %154
  %156 = shl i64 %155, 1
  %157 = load i64, ptr %12, align 8
  %158 = or i64 %157, %156
  store i64 %158, ptr %12, align 8
  br label %313

159:                                              ; preds = %26
  %160 = load i64, ptr %12, align 8
  %161 = load i64, ptr %16, align 8
  %162 = and i64 %160, %161
  %163 = shl i64 %162, 1
  %164 = load i64, ptr %12, align 8
  %165 = or i64 %164, %163
  store i64 %165, ptr %12, align 8
  %166 = load i64, ptr %12, align 8
  %167 = load i64, ptr %16, align 8
  %168 = load i64, ptr %14, align 8
  %169 = and i64 %168, 134217727
  %170 = lshr i64 %167, %169
  %171 = and i64 %166, %170
  %172 = icmp ne i64 %171, 0
  %173 = zext i1 %172 to i32
  store i32 %173, ptr %18, align 4
  %174 = load i64, ptr %12, align 8
  %175 = load i64, ptr %16, align 8
  %176 = and i64 %174, %175
  %177 = load i64, ptr %14, align 8
  %178 = and i64 %177, 134217727
  %179 = lshr i64 %176, %178
  %180 = load i64, ptr %12, align 8
  %181 = or i64 %180, %179
  store i64 %181, ptr %12, align 8
  %182 = load i32, ptr %18, align 4
  %183 = icmp ne i32 %182, 0
  br i1 %183, label %200, label %184

184:                                              ; preds = %159
  %185 = load i64, ptr %12, align 8
  %186 = load i64, ptr %16, align 8
  %187 = load i64, ptr %14, align 8
  %188 = and i64 %187, 134217727
  %189 = lshr i64 %186, %188
  %190 = and i64 %185, %189
  %191 = icmp ne i64 %190, 0
  br i1 %191, label %192, label %200

192:                                              ; preds = %184
  %193 = load i64, ptr %14, align 8
  %194 = and i64 %193, 134217727
  %195 = add i64 %194, 1
  %196 = load i64, ptr %15, align 8
  %197 = sub i64 %196, %195
  store i64 %197, ptr %15, align 8
  %198 = load i64, ptr %15, align 8
  %199 = shl i64 1, %198
  store i64 %199, ptr %16, align 8
  br label %200

200:                                              ; preds = %192, %184, %159
  br label %313

201:                                              ; preds = %26
  %202 = load i64, ptr %12, align 8
  %203 = load i64, ptr %16, align 8
  %204 = and i64 %202, %203
  %205 = shl i64 %204, 1
  %206 = load i64, ptr %12, align 8
  %207 = or i64 %206, %205
  store i64 %207, ptr %12, align 8
  %208 = load i64, ptr %12, align 8
  %209 = load i64, ptr %16, align 8
  %210 = and i64 %208, %209
  %211 = load i64, ptr %14, align 8
  %212 = and i64 %211, 134217727
  %213 = shl i64 %210, %212
  %214 = load i64, ptr %12, align 8
  %215 = or i64 %214, %213
  store i64 %215, ptr %12, align 8
  br label %313

216:                                              ; preds = %26
  %217 = load i64, ptr %12, align 8
  %218 = load i64, ptr %16, align 8
  %219 = and i64 %217, %218
  %220 = shl i64 %219, 1
  %221 = load i64, ptr %12, align 8
  %222 = or i64 %221, %220
  store i64 %222, ptr %12, align 8
  br label %313

223:                                              ; preds = %26, %26
  %224 = load i64, ptr %12, align 8
  %225 = load i64, ptr %16, align 8
  %226 = and i64 %224, %225
  %227 = shl i64 %226, 1
  %228 = load i64, ptr %12, align 8
  %229 = or i64 %228, %227
  store i64 %229, ptr %12, align 8
  br label %313

230:                                              ; preds = %26
  %231 = load i64, ptr %12, align 8
  %232 = load i64, ptr %16, align 8
  %233 = and i64 %231, %232
  %234 = shl i64 %233, 1
  %235 = load i64, ptr %12, align 8
  %236 = or i64 %235, %234
  store i64 %236, ptr %12, align 8
  %237 = load i64, ptr %12, align 8
  %238 = load i64, ptr %16, align 8
  %239 = and i64 %237, %238
  %240 = load i64, ptr %14, align 8
  %241 = and i64 %240, 134217727
  %242 = shl i64 %239, %241
  %243 = load i64, ptr %12, align 8
  %244 = or i64 %243, %242
  store i64 %244, ptr %12, align 8
  br label %313

245:                                              ; preds = %26
  %246 = load i64, ptr %12, align 8
  %247 = load i64, ptr %16, align 8
  %248 = and i64 %246, %247
  %249 = icmp ne i64 %248, 0
  br i1 %249, label %250, label %276

250:                                              ; preds = %245
  store i64 1, ptr %17, align 8
  br label %251

251:                                              ; preds = %263, %250
  %252 = load ptr, ptr %7, align 8
  %253 = getelementptr inbounds nuw %struct.re_guts, ptr %252, i32 0, i32 1
  %254 = load ptr, ptr %253, align 8
  %255 = load i64, ptr %15, align 8
  %256 = load i64, ptr %17, align 8
  %257 = add nsw i64 %255, %256
  %258 = getelementptr inbounds i64, ptr %254, i64 %257
  %259 = load i64, ptr %258, align 8
  store i64 %259, ptr %14, align 8
  %260 = and i64 %259, 4160749568
  %261 = icmp ne i64 %260, 2415919104
  br i1 %261, label %262, label %268

262:                                              ; preds = %251
  br label %263

263:                                              ; preds = %262
  %264 = load i64, ptr %14, align 8
  %265 = and i64 %264, 134217727
  %266 = load i64, ptr %17, align 8
  %267 = add i64 %266, %265
  store i64 %267, ptr %17, align 8
  br label %251, !llvm.loop !19

268:                                              ; preds = %251
  %269 = load i64, ptr %12, align 8
  %270 = load i64, ptr %16, align 8
  %271 = and i64 %269, %270
  %272 = load i64, ptr %17, align 8
  %273 = shl i64 %271, %272
  %274 = load i64, ptr %12, align 8
  %275 = or i64 %274, %273
  store i64 %275, ptr %12, align 8
  br label %276

276:                                              ; preds = %268, %245
  br label %313

277:                                              ; preds = %26
  %278 = load i64, ptr %12, align 8
  %279 = load i64, ptr %16, align 8
  %280 = and i64 %278, %279
  %281 = shl i64 %280, 1
  %282 = load i64, ptr %12, align 8
  %283 = or i64 %282, %281
  store i64 %283, ptr %12, align 8
  %284 = load ptr, ptr %7, align 8
  %285 = getelementptr inbounds nuw %struct.re_guts, ptr %284, i32 0, i32 1
  %286 = load ptr, ptr %285, align 8
  %287 = load i64, ptr %15, align 8
  %288 = load i64, ptr %14, align 8
  %289 = and i64 %288, 134217727
  %290 = add i64 %287, %289
  %291 = getelementptr inbounds i64, ptr %286, i64 %290
  %292 = load i64, ptr %291, align 8
  %293 = and i64 %292, 4160749568
  %294 = icmp ne i64 %293, 2415919104
  br i1 %294, label %295, label %304

295:                                              ; preds = %277
  %296 = load i64, ptr %12, align 8
  %297 = load i64, ptr %16, align 8
  %298 = and i64 %296, %297
  %299 = load i64, ptr %14, align 8
  %300 = and i64 %299, 134217727
  %301 = shl i64 %298, %300
  %302 = load i64, ptr %12, align 8
  %303 = or i64 %302, %301
  store i64 %303, ptr %12, align 8
  br label %304

304:                                              ; preds = %295, %277
  br label %313

305:                                              ; preds = %26
  %306 = load i64, ptr %12, align 8
  %307 = load i64, ptr %16, align 8
  %308 = and i64 %306, %307
  %309 = shl i64 %308, 1
  %310 = load i64, ptr %12, align 8
  %311 = or i64 %310, %309
  store i64 %311, ptr %12, align 8
  br label %313

312:                                              ; preds = %26
  br label %313

313:                                              ; preds = %312, %305, %304, %276, %230, %223, %216, %201, %200, %152, %145, %144, %111, %100, %89, %78, %64, %50, %35
  br label %314

314:                                              ; preds = %313
  %315 = load i64, ptr %15, align 8
  %316 = add nsw i64 %315, 1
  store i64 %316, ptr %15, align 8
  %317 = load i64, ptr %16, align 8
  %318 = shl i64 %317, 1
  store i64 %318, ptr %16, align 8
  br label %22, !llvm.loop !20

319:                                              ; preds = %22
  %320 = load i64, ptr %12, align 8
  ret i64 %320
}