; Function Attrs: nofree norecurse nosync nounwind memory(read, inaccessiblemem: none) uwtable
define internal fastcc i64 @sstep(ptr nocapture noundef readonly %0, i64 noundef %1, i64 noundef %2, i64 noundef %3, i32 noundef %4, i64 noundef %5) unnamed_addr #8 {
  %.not131 = icmp eq i64 %1, %2
  br i1 %.not131, label %._crit_edge137, label %.lr.ph136

.lr.ph136:                                        ; preds = %6
  %7 = shl nuw i64 1, %1
  %8 = getelementptr inbounds nuw i8, ptr %0, i64 8
  %9 = load ptr, ptr %8, align 8
  %10 = icmp sgt i32 %4, 127
  %11 = getelementptr inbounds nuw i8, ptr %0, i64 24
  %12 = and i32 %4, 255
  %13 = zext nneg i32 %12 to i64
  %14 = icmp eq i32 %4, 134
  %15 = icmp eq i32 %4, 133
  %16 = and i32 %4, -2
  %or.cond3 = icmp eq i32 %16, 130
  %17 = and i32 %4, -3
  %or.cond = icmp eq i32 %17, 129
  br label %18

18:                                               ; preds = %.lr.ph136, %147
  %.0134 = phi i64 [ %5, %.lr.ph136 ], [ %.1, %147 ]
  %.0116133 = phi i64 [ %7, %.lr.ph136 ], [ %149, %147 ]
  %.0118132 = phi i64 [ %1, %.lr.ph136 ], [ %148, %147 ]
  %19 = getelementptr inbounds i64, ptr %9, i64 %.0118132
  %20 = load i64, ptr %19, align 8
  %21 = and i64 %20, 4160749568
  %22 = add nsw i64 %21, -134217728
  %23 = lshr exact i64 %22, 27
  switch i64 %23, label %147 [
    i64 17, label %143
    i64 1, label %24
    i64 2, label %32
    i64 3, label %37
    i64 18, label %42
    i64 19, label %47
    i64 4, label %52
    i64 5, label %57
    i64 6, label %72
    i64 7, label %72
    i64 8, label %76
    i64 9, label %80
    i64 10, label %94
    i64 11, label %102
    i64 12, label %106
    i64 13, label %106
    i64 14, label %110
    i64 15, label %118
    i64 16, label %131
  ]

24:                                               ; preds = %18
  %25 = trunc i64 %20 to i32
  %sext = shl i32 %25, 24
  %26 = ashr exact i32 %sext, 24
  %27 = icmp eq i32 %4, %26
  br i1 %27, label %28, label %147

28:                                               ; preds = %24
  %29 = and i64 %.0116133, %3
  %30 = shl i64 %29, 1
  %31 = or i64 %30, %.0134
  br label %147

32:                                               ; preds = %18
  br i1 %or.cond, label %33, label %147

33:                                               ; preds = %32
  %34 = and i64 %.0116133, %3
  %35 = shl i64 %34, 1
  %36 = or i64 %35, %.0134
  br label %147

37:                                               ; preds = %18
  br i1 %or.cond3, label %38, label %147

38:                                               ; preds = %37
  %39 = and i64 %.0116133, %3
  %40 = shl i64 %39, 1
  %41 = or i64 %40, %.0134
  br label %147

42:                                               ; preds = %18
  br i1 %15, label %43, label %147

43:                                               ; preds = %42
  %44 = and i64 %.0116133, %3
  %45 = shl i64 %44, 1
  %46 = or i64 %45, %.0134
  br label %147

47:                                               ; preds = %18
  br i1 %14, label %48, label %147

48:                                               ; preds = %47
  %49 = and i64 %.0116133, %3
  %50 = shl i64 %49, 1
  %51 = or i64 %50, %.0134
  br label %147

52:                                               ; preds = %18
  br i1 %10, label %147, label %53

53:                                               ; preds = %52
  %54 = and i64 %.0116133, %3
  %55 = shl i64 %54, 1
  %56 = or i64 %55, %.0134
  br label %147

57:                                               ; preds = %18
  br i1 %10, label %147, label %58

58:                                               ; preds = %57
  %59 = load ptr, ptr %11, align 8
  %60 = and i64 %20, 134217727
  %61 = getelementptr inbounds %struct.cset, ptr %59, i64 %60
  %62 = load ptr, ptr %61, align 8
  %63 = getelementptr inbounds i8, ptr %62, i64 %13
  %64 = load i8, ptr %63, align 1
  %65 = getelementptr inbounds nuw i8, ptr %61, i64 8
  %66 = load i8, ptr %65, align 8
  %67 = and i8 %66, %64
  %.not127 = icmp eq i8 %67, 0
  br i1 %.not127, label %147, label %68

68:                                               ; preds = %58
  %69 = and i64 %.0116133, %3
  %70 = shl i64 %69, 1
  %71 = or i64 %70, %.0134
  br label %147

72:                                               ; preds = %18, %18
  %73 = and i64 %.0134, %.0116133
  %74 = shl i64 %73, 1
  %75 = or i64 %74, %.0134
  br label %147

76:                                               ; preds = %18
  %77 = and i64 %.0134, %.0116133
  %78 = shl i64 %77, 1
  %79 = or i64 %78, %.0134
  br label %147

80:                                               ; preds = %18
  %81 = and i64 %.0134, %.0116133
  %82 = shl i64 %81, 1
  %83 = or i64 %82, %.0134
  %84 = and i64 %20, 134217727
  %85 = lshr i64 %.0116133, %84
  %86 = and i64 %85, %83
  %.not125 = icmp ne i64 %86, 0
  %87 = and i64 %83, %.0116133
  %88 = lshr i64 %87, %84
  %89 = or i64 %88, %83
  %90 = and i64 %89, %85
  %.not126 = icmp eq i64 %90, 0
  %or.cond128 = select i1 %.not125, i1 true, i1 %.not126
  br i1 %or.cond128, label %147, label %91

91:                                               ; preds = %80
  %.neg = xor i64 %84, -1
  %92 = add i64 %.0118132, %.neg
  %93 = shl nuw i64 1, %92
  br label %147

94:                                               ; preds = %18
  %95 = and i64 %.0134, %.0116133
  %96 = shl i64 %95, 1
  %97 = or i64 %96, %.0134
  %98 = and i64 %97, %.0116133
  %99 = and i64 %20, 134217727
  %100 = shl i64 %98, %99
  %101 = or i64 %100, %97
  br label %147

102:                                              ; preds = %18
  %103 = and i64 %.0134, %.0116133
  %104 = shl i64 %103, 1
  %105 = or i64 %104, %.0134
  br label %147

106:                                              ; preds = %18, %18
  %107 = and i64 %.0134, %.0116133
  %108 = shl i64 %107, 1
  %109 = or i64 %108, %.0134
  br label %147

110:                                              ; preds = %18
  %111 = and i64 %.0134, %.0116133
  %112 = shl i64 %111, 1
  %113 = or i64 %112, %.0134
  %114 = and i64 %113, %.0116133
  %115 = and i64 %20, 134217727
  %116 = shl i64 %114, %115
  %117 = or i64 %116, %113
  br label %147

118:                                              ; preds = %18
  %119 = and i64 %.0134, %.0116133
  %.not123 = icmp eq i64 %119, 0
  br i1 %.not123, label %147, label %.preheader

.preheader:                                       ; preds = %118
  %120 = getelementptr i8, ptr %19, i64 8
  %121 = load i64, ptr %120, align 8
  %122 = and i64 %121, 4160749568
  %.not124129 = icmp eq i64 %122, 2415919104
  br i1 %.not124129, label %._crit_edge, label %.lr.ph

.lr.ph:                                           ; preds = %.preheader, %.lr.ph
  %123 = phi i64 [ %127, %.lr.ph ], [ %121, %.preheader ]
  %.0115130 = phi i64 [ %125, %.lr.ph ], [ 1, %.preheader ]
  %124 = and i64 %123, 134217727
  %125 = add i64 %124, %.0115130
  %126 = getelementptr i64, ptr %19, i64 %125
  %127 = load i64, ptr %126, align 8
  %128 = and i64 %127, 4160749568
  %.not124 = icmp eq i64 %128, 2415919104
  br i1 %.not124, label %._crit_edge, label %.lr.ph, !llvm.loop !18

._crit_edge:                                      ; preds = %.lr.ph, %.preheader
  %.0115.lcssa = phi i64 [ 1, %.preheader ], [ %125, %.lr.ph ]
  %129 = shl i64 %119, %.0115.lcssa
  %130 = or i64 %129, %.0134
  br label %147

131:                                              ; preds = %18
  %132 = and i64 %.0134, %.0116133
  %133 = shl i64 %132, 1
  %134 = or i64 %133, %.0134
  %135 = and i64 %20, 134217727
  %136 = getelementptr i64, ptr %19, i64 %135
  %137 = load i64, ptr %136, align 8
  %138 = and i64 %137, 4160749568
  %.not122 = icmp eq i64 %138, 2415919104
  br i1 %.not122, label %147, label %139

139:                                              ; preds = %131
  %140 = and i64 %134, %.0116133
  %141 = shl i64 %140, %135
  %142 = or i64 %141, %134
  br label %147

143:                                              ; preds = %18
  %144 = and i64 %.0134, %.0116133
  %145 = shl i64 %144, 1
  %146 = or i64 %145, %.0134
  br label %147

147:                                              ; preds = %72, %76, %94, %102, %106, %110, %143, %28, %24, %32, %33, %37, %38, %43, %42, %48, %47, %53, %52, %68, %58, %57, %91, %80, %._crit_edge, %118, %139, %131, %18
  %.1119 = phi i64 [ %.0118132, %18 ], [ %.0118132, %139 ], [ %.0118132, %131 ], [ %.0118132, %._crit_edge ], [ %.0118132, %118 ], [ %.0118132, %110 ], [ %.0118132, %106 ], [ %.0118132, %102 ], [ %.0118132, %94 ], [ %.0118132, %80 ], [ %92, %91 ], [ %.0118132, %76 ], [ %.0118132, %72 ], [ %.0118132, %57 ], [ %.0118132, %68 ], [ %.0118132, %58 ], [ %.0118132, %52 ], [ %.0118132, %53 ], [ %.0118132, %48 ], [ %.0118132, %47 ], [ %.0118132, %43 ], [ %.0118132, %42 ], [ %.0118132, %38 ], [ %.0118132, %37 ], [ %.0118132, %33 ], [ %.0118132, %32 ], [ %.0118132, %28 ], [ %.0118132, %24 ], [ %.0118132, %143 ]
  %.1117 = phi i64 [ %.0116133, %18 ], [ %.0116133, %139 ], [ %.0116133, %131 ], [ %.0116133, %._crit_edge ], [ %.0116133, %118 ], [ %.0116133, %110 ], [ %.0116133, %106 ], [ %.0116133, %102 ], [ %.0116133, %94 ], [ %.0116133, %80 ], [ %93, %91 ], [ %.0116133, %76 ], [ %.0116133, %72 ], [ %.0116133, %57 ], [ %.0116133, %68 ], [ %.0116133, %58 ], [ %.0116133, %52 ], [ %.0116133, %53 ], [ %.0116133, %48 ], [ %.0116133, %47 ], [ %.0116133, %43 ], [ %.0116133, %42 ], [ %.0116133, %38 ], [ %.0116133, %37 ], [ %.0116133, %33 ], [ %.0116133, %32 ], [ %.0116133, %28 ], [ %.0116133, %24 ], [ %.0116133, %143 ]
  %.1 = phi i64 [ %.0134, %18 ], [ %142, %139 ], [ %134, %131 ], [ %130, %._crit_edge ], [ %.0134, %118 ], [ %117, %110 ], [ %109, %106 ], [ %105, %102 ], [ %101, %94 ], [ %89, %80 ], [ %89, %91 ], [ %79, %76 ], [ %75, %72 ], [ %.0134, %57 ], [ %71, %68 ], [ %.0134, %58 ], [ %.0134, %52 ], [ %56, %53 ], [ %51, %48 ], [ %.0134, %47 ], [ %46, %43 ], [ %.0134, %42 ], [ %41, %38 ], [ %.0134, %37 ], [ %36, %33 ], [ %.0134, %32 ], [ %31, %28 ], [ %.0134, %24 ], [ %146, %143 ]
  %148 = add nsw i64 %.1119, 1
  %149 = shl i64 %.1117, 1
  %.not = icmp eq i64 %148, %2
  br i1 %.not, label %._crit_edge137, label %18, !llvm.loop !19

._crit_edge137:                                   ; preds = %147, %6
  %.0.lcssa = phi i64 [ %5, %6 ], [ %.1, %147 ]
  ret i64 %.0.lcssa
}